; Function Attrs: nounwind uwtable
define ptr @l_Lean_Meta_FVarSubst_domain___boxed(ptr noundef %0) local_unnamed_addr #0 {
  br label %2

2:                                                ; preds = %lean_alloc_ctor.exit.i.i, %1
  %.011.i.i = phi ptr [ %0, %1 ], [ %16, %lean_alloc_ctor.exit.i.i ]
  %.0.i.i = phi ptr [ inttoptr (i64 1 to ptr), %1 ], [ %25, %lean_alloc_ctor.exit.i.i ]
  %3 = ptrtoint ptr %.011.i.i to i64
  %4 = and i64 %3, 1
  %.not.i.i.i = icmp eq i64 %4, 0
  br i1 %.not.i.i.i, label %8, label %5

5:                                                ; preds = %2
  %6 = lshr i64 %3, 1
  %7 = trunc i64 %6 to i32
  br label %lean_obj_tag.exit.i.i

8:                                                ; preds = %2
  %9 = getelementptr i8, ptr %.011.i.i, i64 4
  %.val.i.i.i = load i32, ptr %9, align 4
  %10 = lshr i32 %.val.i.i.i, 24
  br label %lean_obj_tag.exit.i.i

lean_obj_tag.exit.i.i:                            ; preds = %8, %5
  %.0.i.i.i = phi i32 [ %7, %5 ], [ %10, %8 ]
  %11 = icmp eq i32 %.0.i.i.i, 0
  br i1 %11, label %l_Lean_Meta_FVarSubst_domain.exit, label %12

12:                                               ; preds = %lean_obj_tag.exit.i.i
  %13 = getelementptr inbounds nuw i8, ptr %.011.i.i, i64 8
  %14 = load ptr, ptr %13, align 8, !tbaa !10
  %15 = getelementptr inbounds nuw i8, ptr %.011.i.i, i64 24
  %16 = load ptr, ptr %15, align 8, !tbaa !10
  %17 = ptrtoint ptr %14 to i64
  %18 = and i64 %17, 1
  %.not.i.i = icmp eq i64 %18, 0
  br i1 %.not.i.i, label %19, label %lean_inc.exit.i.i

19:                                               ; preds = %12
  %.val.i12.i.i = load i32, ptr %14, align 4, !tbaa !4
  %20 = icmp sgt i32 %.val.i12.i.i, 0
  br i1 %20, label %21, label %23, !prof !9

21:                                               ; preds = %19
  %22 = add nuw i32 %.val.i12.i.i, 1
  store i32 %22, ptr %14, align 4, !tbaa !4
  br label %lean_inc.exit.i.i

23:                                               ; preds = %19
  %.not.i13.i.i = icmp eq i32 %.val.i12.i.i, 0
  br i1 %.not.i13.i.i, label %lean_inc.exit.i.i, label %24

24:                                               ; preds = %23
  tail call void @lean_inc_ref_cold(ptr noundef nonnull %14) #3
  br label %lean_inc.exit.i.i

lean_inc.exit.i.i:                                ; preds = %24, %23, %21, %12
  tail call void @lean_inc_heartbeat() #3
  %25 = tail call noalias ptr @mi_malloc_small(i64 noundef 24) #3
  %26 = icmp eq ptr %25, null
  br i1 %26, label %27, label %lean_alloc_ctor.exit.i.i

27:                                               ; preds = %lean_inc.exit.i.i
  tail call void @lean_internal_panic_out_of_memory() #4
  unreachable

lean_alloc_ctor.exit.i.i:                         ; preds = %lean_inc.exit.i.i
  %28 = getelementptr inbounds nuw i8, ptr %25, i64 4
  store i32 1, ptr %25, align 4, !tbaa !4
  store i32 16908312, ptr %28, align 4
  %29 = getelementptr inbounds nuw i8, ptr %25, i64 8
  store ptr %14, ptr %29, align 8, !tbaa !10
  %30 = getelementptr inbounds nuw i8, ptr %25, i64 16
  store ptr %.0.i.i, ptr %30, align 8, !tbaa !10
  br label %2

l_Lean_Meta_FVarSubst_domain.exit:                ; preds = %lean_obj_tag.exit.i.i
  %31 = ptrtoint ptr %0 to i64
  %32 = and i64 %31, 1
  %.not = icmp eq i64 %32, 0
  br i1 %.not, label %33, label %lean_dec.exit

33:                                               ; preds = %l_Lean_Meta_FVarSubst_domain.exit
  %34 = load i32, ptr %0, align 4, !tbaa !4
  %35 = icmp sgt i32 %34, 1
  br i1 %35, label %36, label %38, !prof !9

36:                                               ; preds = %33
  %37 = add nsw i32 %34, -1
  store i32 %37, ptr %0, align 4, !tbaa !4
  br label %lean_dec.exit

38:                                               ; preds = %33
  %.not.i = icmp eq i32 %34, 0
  br i1 %.not.i, label %lean_dec.exit, label %39

39:                                               ; preds = %38
  tail call void @lean_dec_ref_cold(ptr noundef nonnull %0) #3
  br label %lean_dec.exit

lean_dec.exit:                                    ; preds = %39, %38, %36, %l_Lean_Meta_FVarSubst_domain.exit
  ret ptr %.0.i.i
}